; Function Attrs: nounwind uwtable
define ptr @l_Lean_Elab_Tactic_grind(ptr noundef %0, ptr noundef %1, i8 noundef zeroext %2, ptr noundef %3, ptr noundef %4, ptr noundef %5, ptr noundef %6, ptr noundef %7, ptr noundef %8, ptr noundef %9, ptr noundef %10, ptr noundef %11, ptr noundef %12, ptr noundef %13) local_unnamed_addr #0 {
  %15 = ptrtoint ptr %0 to i64
  %16 = and i64 %15, 1
  %.not = icmp eq i64 %16, 0
  br i1 %.not, label %17, label %lean_inc.exit

17:                                               ; preds = %14
  %.val.i = load i32, ptr %0, align 4, !tbaa !8
  %18 = icmp sgt i32 %.val.i, 0
  br i1 %18, label %19, label %21, !prof !11

19:                                               ; preds = %17
  %20 = add nuw i32 %.val.i, 1
  store i32 %20, ptr %0, align 4, !tbaa !8
  br label %lean_inc.exit

21:                                               ; preds = %17
  %.not.i = icmp eq i32 %.val.i, 0
  br i1 %.not.i, label %lean_inc.exit, label %22

22:                                               ; preds = %21
  tail call void @lean_inc_ref_cold(ptr noundef nonnull %0) #5
  br label %lean_inc.exit

lean_inc.exit:                                    ; preds = %22, %21, %19, %14
  tail call void @lean_inc_heartbeat() #5
  %23 = tail call noalias ptr @mi_malloc_small(i64 noundef 64) #5
  %24 = icmp eq ptr %23, null
  br i1 %24, label %25, label %lean_alloc_closure.exit

25:                                               ; preds = %lean_inc.exit
  tail call void @lean_internal_panic_out_of_memory() #6
  unreachable

lean_alloc_closure.exit:                          ; preds = %lean_inc.exit
  %26 = zext i8 %2 to i64
  %27 = shl nuw nsw i64 %26, 1
  %28 = or disjoint i64 %27, 1
  %29 = inttoptr i64 %28 to ptr
  %30 = getelementptr inbounds nuw i8, ptr %23, i64 4
  store i32 1, ptr %23, align 4, !tbaa !8
  store i32 -184549312, ptr %30, align 4
  %31 = getelementptr inbounds nuw i8, ptr %23, i64 8
  store ptr @l_Lean_Elab_Tactic_grind___lambda__3___boxed, ptr %31, align 8, !tbaa !4
  %32 = getelementptr inbounds nuw i8, ptr %23, i64 16
  store i16 14, ptr %32, align 8, !tbaa !16
  %33 = getelementptr inbounds nuw i8, ptr %23, i64 18
  store i16 5, ptr %33, align 2, !tbaa !16
  %34 = getelementptr inbounds nuw i8, ptr %23, i64 24
  store ptr %1, ptr %34, align 8, !tbaa !4
  %35 = getelementptr inbounds nuw i8, ptr %23, i64 32
  store ptr %29, ptr %35, align 8, !tbaa !4
  %36 = getelementptr inbounds nuw i8, ptr %23, i64 40
  store ptr %3, ptr %36, align 8, !tbaa !4
  %37 = getelementptr inbounds nuw i8, ptr %23, i64 48
  store ptr %0, ptr %37, align 8, !tbaa !4
  %38 = getelementptr inbounds nuw i8, ptr %23, i64 56
  store ptr %4, ptr %38, align 8, !tbaa !4
  %39 = tail call ptr @l_Lean_MVarId_withContext___at_Lean_Elab_Tactic_withMainContext___spec__1___rarg(ptr noundef %0, ptr noundef nonnull %23, ptr noundef %5, ptr noundef %6, ptr noundef %7, ptr noundef %8, ptr noundef %9, ptr noundef %10, ptr noundef %11, ptr noundef %12, ptr noundef %13) #5
  ret ptr %39
}